target datalayout = "e-m:e-p270:32:32-p271:32:32-p272:64:64-i64:64-i128:128-f80:128-n8:16:32:64-S128"
target triple = "x86_64-pc-linux-gnu"

%"class.boost::detail::shared_count" = type { ptr }
%"class.boost::unit_test::test_unit" = type { i32, %"class.boost::unit_test::basic_cstring", %"class.boost::unit_test::basic_cstring", i64, %"class.boost::unit_test::test_unit::readonly_property62", %"class.boost::unit_test::test_unit::readonly_property63", %"class.boost::unit_test::test_unit::readonly_property66", %"class.boost::unit_test::test_unit::readonly_property64", %"class.boost::unit_test::test_unit::readonly_property69", %"class.boost::unit_test::readwrite_property", %"class.boost::unit_test::readwrite_property", %"class.boost::unit_test::readwrite_property.32", %"class.boost::unit_test::readwrite_property.34", %"class.boost::unit_test::readwrite_property.35", %"class.boost::unit_test::readwrite_property.35", %"class.boost::unit_test::readwrite_property.34", %"class.boost::unit_test::readwrite_property.37", %"class.boost::unit_test::readwrite_property.39" }
%"class.boost::unit_test::basic_cstring" = type { ptr, ptr }
%"class.boost::unit_test::test_unit::readonly_property62" = type { %"class.boost::unit_test::readonly_property" }
%"class.boost::unit_test::readonly_property" = type { %"class.boost::unit_test::class_property" }
%"class.boost::unit_test::class_property" = type { i64 }
%"class.boost::unit_test::test_unit::readonly_property63" = type { %"class.boost::unit_test::readonly_property" }
%"class.boost::unit_test::test_unit::readonly_property66" = type { %"class.boost::unit_test::readonly_property.7" }
%"class.boost::unit_test::readonly_property.7" = type { %"class.boost::unit_test::class_property.8" }
%"class.boost::unit_test::class_property.8" = type { %"class.std::vector.9" }
%"class.std::vector.9" = type { %"struct.std::_Vector_base.10" }
%"struct.std::_Vector_base.10" = type { %"struct.std::_Vector_base<std::__cxx11::basic_string<char>, std::allocator<std::__cxx11::basic_string<char>>>::_Vector_impl" }
%"struct.std::_Vector_base<std::__cxx11::basic_string<char>, std::allocator<std::__cxx11::basic_string<char>>>::_Vector_impl" = type { %"struct.std::_Vector_base<std::__cxx11::basic_string<char>, std::allocator<std::__cxx11::basic_string<char>>>::_Vector_impl_data" }
%"struct.std::_Vector_base<std::__cxx11::basic_string<char>, std::allocator<std::__cxx11::basic_string<char>>>::_Vector_impl_data" = type { ptr, ptr, ptr }
%"class.boost::unit_test::test_unit::readonly_property64" = type { %"class.boost::unit_test::readonly_property.14" }
%"class.boost::unit_test::readonly_property.14" = type { %"class.boost::unit_test::class_property.15" }
%"class.boost::unit_test::class_property.15" = type { %"class.std::vector.16" }
%"class.std::vector.16" = type { %"struct.std::_Vector_base.17" }
%"struct.std::_Vector_base.17" = type { %"struct.std::_Vector_base<unsigned long, std::allocator<unsigned long>>::_Vector_impl" }
%"struct.std::_Vector_base<unsigned long, std::allocator<unsigned long>>::_Vector_impl" = type { %"struct.std::_Vector_base<unsigned long, std::allocator<unsigned long>>::_Vector_impl_data" }
%"struct.std::_Vector_base<unsigned long, std::allocator<unsigned long>>::_Vector_impl_data" = type { ptr, ptr, ptr }
%"class.boost::unit_test::test_unit::readonly_property69" = type { %"class.boost::unit_test::readonly_property.21" }
%"class.boost::unit_test::readonly_property.21" = type { %"class.boost::unit_test::class_property.22" }
%"class.boost::unit_test::class_property.22" = type { %"class.std::vector.23" }
%"class.std::vector.23" = type { %"struct.std::_Vector_base.24" }
%"struct.std::_Vector_base.24" = type { %"struct.std::_Vector_base<boost::function<boost::test_tools::assertion_result (unsigned long)>, std::allocator<boost::function<boost::test_tools::assertion_result (unsigned long)>>>::_Vector_impl" }
%"struct.std::_Vector_base<boost::function<boost::test_tools::assertion_result (unsigned long)>, std::allocator<boost::function<boost::test_tools::assertion_result (unsigned long)>>>::_Vector_impl" = type { %"struct.std::_Vector_base<boost::function<boost::test_tools::assertion_result (unsigned long)>, std::allocator<boost::function<boost::test_tools::assertion_result (unsigned long)>>>::_Vector_impl_data" }
%"struct.std::_Vector_base<boost::function<boost::test_tools::assertion_result (unsigned long)>, std::allocator<boost::function<boost::test_tools::assertion_result (unsigned long)>>>::_Vector_impl_data" = type { ptr, ptr, ptr }
%"class.boost::unit_test::readwrite_property" = type { %"class.boost::unit_test::class_property.28" }
%"class.boost::unit_test::class_property.28" = type { %"class.std::__cxx11::basic_string" }
%"class.std::__cxx11::basic_string" = type { %"struct.std::__cxx11::basic_string<char>::_Alloc_hider", i64, %union.anon }
%"struct.std::__cxx11::basic_string<char>::_Alloc_hider" = type { ptr }
%union.anon = type { i64, [8 x i8] }
%"class.boost::unit_test::readwrite_property.32" = type { %"class.boost::unit_test::class_property.33" }
%"class.boost::unit_test::class_property.33" = type { i32 }
%"class.boost::unit_test::readwrite_property.35" = type { %"class.boost::unit_test::class_property.36" }
%"class.boost::unit_test::class_property.36" = type { i32 }
%"class.boost::unit_test::readwrite_property.34" = type { %"class.boost::unit_test::class_property" }
%"class.boost::unit_test::readwrite_property.37" = type { %"class.boost::unit_test::class_property.38" }
%"class.boost::unit_test::class_property.38" = type { %"class.std::vector.2" }
%"class.std::vector.2" = type { %"struct.std::_Vector_base.3" }
%"struct.std::_Vector_base.3" = type { %"struct.std::_Vector_base<boost::shared_ptr<boost::unit_test::decorator::base>, std::allocator<boost::shared_ptr<boost::unit_test::decorator::base>>>::_Vector_impl" }
%"struct.std::_Vector_base<boost::shared_ptr<boost::unit_test::decorator::base>, std::allocator<boost::shared_ptr<boost::unit_test::decorator::base>>>::_Vector_impl" = type { %"struct.std::_Vector_base<boost::shared_ptr<boost::unit_test::decorator::base>, std::allocator<boost::shared_ptr<boost::unit_test::decorator::base>>>::_Vector_impl_data" }
%"struct.std::_Vector_base<boost::shared_ptr<boost::unit_test::decorator::base>, std::allocator<boost::shared_ptr<boost::unit_test::decorator::base>>>::_Vector_impl_data" = type { ptr, ptr, ptr }
%"class.boost::unit_test::readwrite_property.39" = type { %"class.boost::unit_test::class_property.40" }
%"class.boost::unit_test::class_property.40" = type { %"class.std::vector.41" }
%"class.std::vector.41" = type { %"struct.std::_Vector_base.42" }
%"struct.std::_Vector_base.42" = type { %"struct.std::_Vector_base<boost::shared_ptr<boost::unit_test::test_unit_fixture>, std::allocator<boost::shared_ptr<boost::unit_test::test_unit_fixture>>>::_Vector_impl" }
%"struct.std::_Vector_base<boost::shared_ptr<boost::unit_test::test_unit_fixture>, std::allocator<boost::shared_ptr<boost::unit_test::test_unit_fixture>>>::_Vector_impl" = type { %"struct.std::_Vector_base<boost::shared_ptr<boost::unit_test::test_unit_fixture>, std::allocator<boost::shared_ptr<boost::unit_test::test_unit_fixture>>>::_Vector_impl_data" }
%"struct.std::_Vector_base<boost::shared_ptr<boost::unit_test::test_unit_fixture>, std::allocator<boost::shared_ptr<boost::unit_test::test_unit_fixture>>>::_Vector_impl_data" = type { ptr, ptr, ptr }
%"class.boost::unit_test::decorator::base" = type { ptr }
%"class.boost::unit_test::decorator::fixture_t" = type { %"class.boost::unit_test::decorator::base", %"class.boost::shared_ptr.66" }
%"class.boost::shared_ptr.66" = type { ptr, %"class.boost::detail::shared_count" }
%"class.__gnu_cxx::__normal_iterator.81" = type { ptr }
%"class.boost::detail::sp_counted_base" = type { ptr, i32, i32 }

; Function Attrs: inlinehint mustprogress nounwind uwtable
define linkonce_odr hidden void @_ZN5boost6detail16atomic_incrementEPj(ptr noundef %0) #5 comdat {
  %2 = alloca ptr, align 8
  %3 = alloca i32, align 4
  %4 = alloca i32, align 4
  store ptr %0, ptr %2, align 8, !tbaa !3
  %5 = load ptr, ptr %2, align 8, !tbaa !3
  store i32 1, ptr %3, align 4, !tbaa !105
  %6 = load i32, ptr %3, align 4
  %7 = atomicrmw add ptr %5, i32 %6 monotonic, align 4
  store i32 %7, ptr %4, align 4
  ret void
}

; Function Attrs: noinline noreturn nounwind uwtable
define linkonce_odr hidden void @__clang_call_terminate(ptr noundef %0) #12 comdat {
  %2 = call ptr @__cxa_begin_catch(ptr %0) #3
  call void @_ZSt9terminatev() #21
  unreachable
}

; Function Attrs: mustprogress uwtable
define linkonce_odr hidden void @_ZN5boost6detail15sp_counted_base12add_ref_copyEv(ptr noundef nonnull align 8 dereferenceable(16) %0) #2 comdat align 2 {
  %2 = alloca ptr, align 8
  store ptr %0, ptr %2, align 8, !tbaa !3
  %3 = load ptr, ptr %2, align 8
  %4 = getelementptr inbounds nuw %"class.boost::detail::sp_counted_base", ptr %3, i32 0, i32 1
  call void @_ZN5boost6detail16atomic_incrementEPj(ptr noundef %4)
  ret void
}

; Function Attrs: mustprogress nounwind uwtable
define linkonce_odr hidden void @_ZN5boost6detail12shared_countC2ERKS1_(ptr noundef nonnull align 8 dereferenceable(8) %0, ptr noundef nonnull align 8 dereferenceable(8) %1) unnamed_addr #1 comdat align 2 personality ptr @__gxx_personality_v0 {
  %3 = alloca ptr, align 8
  %4 = alloca ptr, align 8
  store ptr %0, ptr %3, align 8, !tbaa !3
  store ptr %1, ptr %4, align 8, !tbaa !3
  %5 = load ptr, ptr %3, align 8
  %6 = getelementptr inbounds nuw %"class.boost::detail::shared_count", ptr %5, i32 0, i32 0
  %7 = load ptr, ptr %4, align 8, !tbaa !3
  %8 = getelementptr inbounds nuw %"class.boost::detail::shared_count", ptr %7, i32 0, i32 0
  %9 = load ptr, ptr %8, align 8, !tbaa !103
  store ptr %9, ptr %6, align 8, !tbaa !103
  %10 = getelementptr inbounds nuw %"class.boost::detail::shared_count", ptr %5, i32 0, i32 0
  %11 = load ptr, ptr %10, align 8, !tbaa !103
  %12 = icmp ne ptr %11, null
  br i1 %12, label %13, label %17

13:                                               ; preds = %2
  %14 = getelementptr inbounds nuw %"class.boost::detail::shared_count", ptr %5, i32 0, i32 0
  %15 = load ptr, ptr %14, align 8, !tbaa !103
  invoke void @_ZN5boost6detail15sp_counted_base12add_ref_copyEv(ptr noundef nonnull align 8 dereferenceable(16) %15)
          to label %16 unwind label %18

16:                                               ; preds = %13
  br label %17

17:                                               ; preds = %16, %2
  ret void

18:                                               ; preds = %13
  %19 = landingpad { ptr, i32 }
          catch ptr null
  %20 = extractvalue { ptr, i32 } %19, 0
  call void @__clang_call_terminate(ptr %20) #21
  unreachable
}

; Function Attrs: mustprogress nounwind uwtable
define linkonce_odr hidden void @_ZN5boost10shared_ptrINS_9unit_test17test_unit_fixtureEEC2ERKS3_(ptr noundef nonnull align 8 dereferenceable(16) %0, ptr noundef nonnull align 8 dereferenceable(16) %1) unnamed_addr #1 comdat align 2 {
  %3 = alloca ptr, align 8
  %4 = alloca ptr, align 8
  store ptr %0, ptr %3, align 8, !tbaa !3
  store ptr %1, ptr %4, align 8, !tbaa !3
  %5 = load ptr, ptr %3, align 8
  %6 = getelementptr inbounds nuw %"class.boost::shared_ptr.66", ptr %5, i32 0, i32 0
  %7 = load ptr, ptr %4, align 8, !tbaa !3
  %8 = getelementptr inbounds nuw %"class.boost::shared_ptr.66", ptr %7, i32 0, i32 0
  %9 = load ptr, ptr %8, align 8, !tbaa !128
  store ptr %9, ptr %6, align 8, !tbaa !128
  %10 = getelementptr inbounds nuw %"class.boost::shared_ptr.66", ptr %5, i32 0, i32 1
  %11 = load ptr, ptr %4, align 8, !tbaa !3
  %12 = getelementptr inbounds nuw %"class.boost::shared_ptr.66", ptr %11, i32 0, i32 1
  call void @_ZN5boost6detail12shared_countC2ERKS1_(ptr noundef nonnull align 8 dereferenceable(8) %10, ptr noundef nonnull align 8 dereferenceable(8) %12) #3
  ret void
}

; Function Attrs: mustprogress nounwind uwtable
define linkonce_odr hidden void @_ZN9__gnu_cxx17__normal_iteratorIPN5boost10shared_ptrINS1_9unit_test17test_unit_fixtureEEESt6vectorIS5_SaIS5_EEEC2ERKS6_(ptr noundef nonnull align 8 dereferenceable(8) %0, ptr noundef nonnull align 8 dereferenceable(8) %1) unnamed_addr #1 comdat align 2 {
  %3 = alloca ptr, align 8
  %4 = alloca ptr, align 8
  store ptr %0, ptr %3, align 8, !tbaa !3
  store ptr %1, ptr %4, align 8, !tbaa !3
  %5 = load ptr, ptr %3, align 8
  %6 = getelementptr inbounds nuw %"class.__gnu_cxx::__normal_iterator.81", ptr %5, i32 0, i32 0
  %7 = load ptr, ptr %4, align 8, !tbaa !3
  %8 = load ptr, ptr %7, align 8, !tbaa !3
  store ptr %8, ptr %6, align 8, !tbaa !187
  ret void
}

; Function Attrs: mustprogress nounwind uwtable
define linkonce_odr hidden void @_ZNSt15__new_allocatorIN5boost10shared_ptrINS0_9unit_test17test_unit_fixtureEEEE9constructIS4_JRKS4_EEEvPT_DpOT0_(ptr noundef nonnull align 1 dereferenceable(1) %0, ptr noundef %1, ptr noundef nonnull align 8 dereferenceable(16) %2) #1 comdat align 2 {
  %4 = alloca ptr, align 8
  %5 = alloca ptr, align 8
  %6 = alloca ptr, align 8
  store ptr %0, ptr %4, align 8, !tbaa !3
  store ptr %1, ptr %5, align 8, !tbaa !3
  store ptr %2, ptr %6, align 8, !tbaa !3
  %7 = load ptr, ptr %5, align 8, !tbaa !3
  %8 = load ptr, ptr %6, align 8, !tbaa !3
  call void @_ZN5boost10shared_ptrINS_9unit_test17test_unit_fixtureEEC2ERKS3_(ptr noundef nonnull align 8 dereferenceable(16) %7, ptr noundef nonnull align 8 dereferenceable(16) %8) #3
  ret void
}

; Function Attrs: mustprogress nounwind uwtable
define linkonce_odr hidden ptr @_ZNSt6vectorIN5boost10shared_ptrINS0_9unit_test17test_unit_fixtureEEESaIS4_EE3endEv(ptr noundef nonnull align 8 dereferenceable(24) %0) #1 comdat align 2 {
  %2 = alloca %"class.__gnu_cxx::__normal_iterator.81", align 8
  %3 = alloca ptr, align 8
  store ptr %0, ptr %3, align 8, !tbaa !3
  %4 = load ptr, ptr %3, align 8
  %5 = getelementptr inbounds nuw %"struct.std::_Vector_base.42", ptr %4, i32 0, i32 0
  %6 = getelementptr inbounds nuw %"struct.std::_Vector_base<boost::shared_ptr<boost::unit_test::test_unit_fixture>, std::allocator<boost::shared_ptr<boost::unit_test::test_unit_fixture>>>::_Vector_impl_data", ptr %5, i32 0, i32 1
  call void @_ZN9__gnu_cxx17__normal_iteratorIPN5boost10shared_ptrINS1_9unit_test17test_unit_fixtureEEESt6vectorIS5_SaIS5_EEEC2ERKS6_(ptr noundef nonnull align 8 dereferenceable(8) %2, ptr noundef nonnull align 8 dereferenceable(8) %6) #3
  %7 = getelementptr inbounds nuw %"class.__gnu_cxx::__normal_iterator.81", ptr %2, i32 0, i32 0
  %8 = load ptr, ptr %7, align 8
  ret ptr %8
}

; Function Attrs: mustprogress nounwind uwtable
define linkonce_odr hidden void @_ZNSt16allocator_traitsISaIN5boost10shared_ptrINS0_9unit_test17test_unit_fixtureEEEEE9constructIS4_JRKS4_EEEvRS5_PT_DpOT0_(ptr noundef nonnull align 1 dereferenceable(1) %0, ptr noundef %1, ptr noundef nonnull align 8 dereferenceable(16) %2) #1 comdat align 2 {
  %4 = alloca ptr, align 8
  %5 = alloca ptr, align 8
  %6 = alloca ptr, align 8
  store ptr %0, ptr %4, align 8, !tbaa !3
  store ptr %1, ptr %5, align 8, !tbaa !3
  store ptr %2, ptr %6, align 8, !tbaa !3
  %7 = load ptr, ptr %4, align 8, !tbaa !3
  %8 = load ptr, ptr %5, align 8, !tbaa !3
  %9 = load ptr, ptr %6, align 8, !tbaa !3
  call void @_ZNSt15__new_allocatorIN5boost10shared_ptrINS0_9unit_test17test_unit_fixtureEEEE9constructIS4_JRKS4_EEEvPT_DpOT0_(ptr noundef nonnull align 1 dereferenceable(1) %7, ptr noundef %8, ptr noundef nonnull align 8 dereferenceable(16) %9) #3
  ret void
}

; Function Attrs: mustprogress uwtable
define linkonce_odr hidden void @_ZNSt6vectorIN5boost10shared_ptrINS0_9unit_test17test_unit_fixtureEEESaIS4_EE9push_backERKS4_(ptr noundef nonnull align 8 dereferenceable(24) %0, ptr noundef nonnull align 8 dereferenceable(16) %1) #2 comdat align 2 {
  %3 = alloca ptr, align 8
  %4 = alloca ptr, align 8
  %5 = alloca %"class.__gnu_cxx::__normal_iterator.81", align 8
  store ptr %0, ptr %3, align 8, !tbaa !3
  store ptr %1, ptr %4, align 8, !tbaa !3
  %6 = load ptr, ptr %3, align 8
  %7 = getelementptr inbounds nuw %"struct.std::_Vector_base.42", ptr %6, i32 0, i32 0
  %8 = getelementptr inbounds nuw %"struct.std::_Vector_base<boost::shared_ptr<boost::unit_test::test_unit_fixture>, std::allocator<boost::shared_ptr<boost::unit_test::test_unit_fixture>>>::_Vector_impl_data", ptr %7, i32 0, i32 1
  %9 = load ptr, ptr %8, align 8, !tbaa !98
  %10 = getelementptr inbounds nuw %"struct.std::_Vector_base.42", ptr %6, i32 0, i32 0
  %11 = getelementptr inbounds nuw %"struct.std::_Vector_base<boost::shared_ptr<boost::unit_test::test_unit_fixture>, std::allocator<boost::shared_ptr<boost::unit_test::test_unit_fixture>>>::_Vector_impl_data", ptr %10, i32 0, i32 2
  %12 = load ptr, ptr %11, align 8, !tbaa !99
  %13 = icmp ne ptr %9, %12
  br i1 %13, label %14, label %24

14:                                               ; preds = %2
  %15 = getelementptr inbounds nuw %"struct.std::_Vector_base.42", ptr %6, i32 0, i32 0
  %16 = getelementptr inbounds nuw %"struct.std::_Vector_base.42", ptr %6, i32 0, i32 0
  %17 = getelementptr inbounds nuw %"struct.std::_Vector_base<boost::shared_ptr<boost::unit_test::test_unit_fixture>, std::allocator<boost::shared_ptr<boost::unit_test::test_unit_fixture>>>::_Vector_impl_data", ptr %16, i32 0, i32 1
  %18 = load ptr, ptr %17, align 8, !tbaa !98
  %19 = load ptr, ptr %4, align 8, !tbaa !3
  call void @_ZNSt16allocator_traitsISaIN5boost10shared_ptrINS0_9unit_test17test_unit_fixtureEEEEE9constructIS4_JRKS4_EEEvRS5_PT_DpOT0_(ptr noundef nonnull align 1 dereferenceable(1) %15, ptr noundef %18, ptr noundef nonnull align 8 dereferenceable(16) %19) #3
  %20 = getelementptr inbounds nuw %"struct.std::_Vector_base.42", ptr %6, i32 0, i32 0
  %21 = getelementptr inbounds nuw %"struct.std::_Vector_base<boost::shared_ptr<boost::unit_test::test_unit_fixture>, std::allocator<boost::shared_ptr<boost::unit_test::test_unit_fixture>>>::_Vector_impl_data", ptr %20, i32 0, i32 1
  %22 = load ptr, ptr %21, align 8, !tbaa !98
  %23 = getelementptr inbounds nuw %"class.boost::shared_ptr.66", ptr %22, i32 1
  store ptr %23, ptr %21, align 8, !tbaa !98
  br label %30

24:                                               ; preds = %2
  %25 = call ptr @_ZNSt6vectorIN5boost10shared_ptrINS0_9unit_test17test_unit_fixtureEEESaIS4_EE3endEv(ptr noundef nonnull align 8 dereferenceable(24) %6) #3
  %26 = getelementptr inbounds nuw %"class.__gnu_cxx::__normal_iterator.81", ptr %5, i32 0, i32 0
  store ptr %25, ptr %26, align 8
  %27 = load ptr, ptr %4, align 8, !tbaa !3
  %28 = getelementptr inbounds nuw %"class.__gnu_cxx::__normal_iterator.81", ptr %5, i32 0, i32 0
  %29 = load ptr, ptr %28, align 8
  call void @_ZNSt6vectorIN5boost10shared_ptrINS0_9unit_test17test_unit_fixtureEEESaIS4_EE17_M_realloc_insertIJRKS4_EEEvN9__gnu_cxx17__normal_iteratorIPS4_S6_EEDpOT_(ptr noundef nonnull align 8 dereferenceable(24) %6, ptr %29, ptr noundef nonnull align 8 dereferenceable(16) %27)
  br label %30

30:                                               ; preds = %24, %14
  ret void
}

; Function Attrs: mustprogress uwtable
define void @_ZN5boost9unit_test9decorator9fixture_t5applyERNS0_9test_unitE(ptr noundef nonnull align 8 dereferenceable(24) %0, ptr noundef nonnull align 8 dereferenceable(280) %1) unnamed_addr #2 align 2 {
  %3 = alloca ptr, align 8
  %4 = alloca ptr, align 8
  store ptr %0, ptr %3, align 8, !tbaa !3
  store ptr %1, ptr %4, align 8, !tbaa !3
  %5 = load ptr, ptr %3, align 8
  %6 = load ptr, ptr %4, align 8, !tbaa !3
  %7 = getelementptr inbounds nuw %"class.boost::unit_test::test_unit", ptr %6, i32 0, i32 17
  %8 = getelementptr inbounds nuw %"class.boost::unit_test::class_property.40", ptr %7, i32 0, i32 0
  %9 = getelementptr inbounds nuw %"class.boost::unit_test::decorator::fixture_t", ptr %5, i32 0, i32 1
  call void @_ZNSt6vectorIN5boost10shared_ptrINS0_9unit_test17test_unit_fixtureEEESaIS4_EE9push_backERKS4_(ptr noundef nonnull align 8 dereferenceable(24) %8, ptr noundef nonnull align 8 dereferenceable(16) %9)
  ret void
}