; Function Attrs: mustprogress uwtable
define void @_ZN5boost9unit_test9decorator9fixture_t5applyERNS0_9test_unitE(ptr noundef nonnull align 8 dereferenceable(24) %0, ptr noundef nonnull align 8 dereferenceable(280) %1) unnamed_addr #0 align 2 personality ptr @__gxx_personality_v0 {
  %3 = getelementptr inbounds nuw i8, ptr %0, i64 8
  %4 = getelementptr inbounds nuw i8, ptr %1, i64 264
  %5 = load ptr, ptr %4, align 8, !tbaa !10
  %6 = getelementptr inbounds nuw i8, ptr %1, i64 272
  %7 = load ptr, ptr %6, align 8, !tbaa !116
  %.not.i = icmp eq ptr %5, %7
  br i1 %.not.i, label %18, label %8

8:                                                ; preds = %2
  %9 = load ptr, ptr %3, align 8, !tbaa !117
  store ptr %9, ptr %5, align 8, !tbaa !117
  %10 = getelementptr inbounds nuw i8, ptr %5, i64 8
  %11 = getelementptr inbounds nuw i8, ptr %0, i64 16
  %12 = load ptr, ptr %11, align 8, !tbaa !18
  store ptr %12, ptr %10, align 8, !tbaa !18
  %.not.i.i.i.i.i = icmp eq ptr %12, null
  br i1 %.not.i.i.i.i.i, label %_ZNSt16allocator_traitsISaIN5boost10shared_ptrINS0_9unit_test17test_unit_fixtureEEEEE9constructIS4_JRKS4_EEEvRS5_PT_DpOT0_.exit.i, label %13

13:                                               ; preds = %8
  %14 = getelementptr inbounds nuw i8, ptr %12, i64 8
  %15 = atomicrmw add ptr %14, i32 1 monotonic, align 4
  %.pre.i = load ptr, ptr %4, align 8, !tbaa !119
  br label %_ZNSt16allocator_traitsISaIN5boost10shared_ptrINS0_9unit_test17test_unit_fixtureEEEEE9constructIS4_JRKS4_EEEvRS5_PT_DpOT0_.exit.i

_ZNSt16allocator_traitsISaIN5boost10shared_ptrINS0_9unit_test17test_unit_fixtureEEEEE9constructIS4_JRKS4_EEEvRS5_PT_DpOT0_.exit.i: ; preds = %13, %8
  %16 = phi ptr [ %5, %8 ], [ %.pre.i, %13 ]
  %17 = getelementptr inbounds nuw i8, ptr %16, i64 16
  store ptr %17, ptr %4, align 8, !tbaa !119
  br label %_ZNSt6vectorIN5boost10shared_ptrINS0_9unit_test17test_unit_fixtureEEESaIS4_EE9push_backERKS4_.exit

18:                                               ; preds = %2
  %19 = getelementptr inbounds nuw i8, ptr %1, i64 256
  tail call void @_ZNSt6vectorIN5boost10shared_ptrINS0_9unit_test17test_unit_fixtureEEESaIS4_EE17_M_realloc_insertIJRKS4_EEEvN9__gnu_cxx17__normal_iteratorIPS4_S6_EEDpOT_(ptr noundef nonnull align 8 dereferenceable(24) %19, ptr %5, ptr noundef nonnull align 8 dereferenceable(16) %3)
  br label %_ZNSt6vectorIN5boost10shared_ptrINS0_9unit_test17test_unit_fixtureEEESaIS4_EE9push_backERKS4_.exit

_ZNSt6vectorIN5boost10shared_ptrINS0_9unit_test17test_unit_fixtureEEESaIS4_EE9push_backERKS4_.exit: ; preds = %_ZNSt16allocator_traitsISaIN5boost10shared_ptrINS0_9unit_test17test_unit_fixtureEEEEE9constructIS4_JRKS4_EEEvRS5_PT_DpOT0_.exit.i, %18
  ret void
}